; Function Attrs: nounwind uwtable
define internal noundef i32 @mxf_write_aes3_desc(ptr noundef %0, ptr noundef readonly captures(none) %1) #0 {
  %3 = getelementptr inbounds nuw i8, ptr %0, i64 32
  %4 = load ptr, ptr %3, align 8, !tbaa !24
  %5 = tail call fastcc i64 @mxf_write_generic_sound_common(ptr noundef %0, ptr noundef readonly %1, ptr noundef nonnull @mxf_aes3_descriptor_key)
  %6 = getelementptr i8, ptr %0, i64 24
  %.val12.i = load ptr, ptr %6, align 8, !tbaa !4
  %.val13.i = load ptr, ptr %3, align 8, !tbaa !24
  tail call fastcc void @mxf_write_local_tag(ptr %.val12.i, ptr %.val13.i, i32 noundef 2, i32 noundef 15626)
  %7 = getelementptr inbounds nuw i8, ptr %1, i64 16
  %8 = load ptr, ptr %7, align 8, !tbaa !48
  %9 = getelementptr inbounds nuw i8, ptr %8, i64 156
  %10 = load i32, ptr %9, align 4, !tbaa !136
  tail call void @avio_wb16(ptr noundef %4, i32 noundef %10) #14
  %.val.i = load ptr, ptr %6, align 8, !tbaa !4
  %.val11.i = load ptr, ptr %3, align 8, !tbaa !24
  tail call fastcc void @mxf_write_local_tag(ptr %.val.i, ptr %.val11.i, i32 noundef 4, i32 noundef 15625)
  %11 = load ptr, ptr %7, align 8, !tbaa !48
  %12 = getelementptr inbounds nuw i8, ptr %11, i64 156
  %13 = load i32, ptr %12, align 4, !tbaa !136
  %14 = getelementptr inbounds nuw i8, ptr %11, i64 152
  %15 = load i32, ptr %14, align 8, !tbaa !199
  %16 = mul nsw i32 %15, %13
  tail call void @avio_wb32(ptr noundef %4, i32 noundef %16) #14
  %17 = load ptr, ptr %3, align 8, !tbaa !24
  %18 = tail call i64 @avio_seek(ptr noundef %17, i64 noundef 0, i32 noundef 1) #14
  %19 = sub nsw i64 %18, %5
  %20 = trunc i64 %19 to i32
  %21 = add nsw i64 %5, -4
  %22 = tail call i64 @avio_seek(ptr noundef %17, i64 noundef %21, i32 noundef 0) #14
  tail call void @avio_w8(ptr noundef %17, i32 noundef 131) #14
  tail call void @avio_wb24(ptr noundef %17, i32 noundef %20) #14
  %23 = tail call i64 @avio_seek(ptr noundef %17, i64 noundef %18, i32 noundef 0) #14
  ret i32 0
}